target datalayout = "e-m:e-p270:32:32-p271:32:32-p272:64:64-i64:64-i128:128-f80:128-n8:16:32:64-S128"
target triple = "x86_64-pc-linux-gnu"

%"struct.cv::aruco::zmaxheap" = type { i64, i32, i32, ptr, ptr, ptr }

; Function Attrs: mustprogress nounwind uwtable
define hidden void @_ZN2cv5aruco16zmaxheap_destroyEPNS0_8zmaxheapE(ptr noundef %0) #0 {
  %2 = alloca ptr, align 8
  store ptr %0, ptr %2, align 8
  %3 = load ptr, ptr %2, align 8
  %4 = getelementptr inbounds %"struct.cv::aruco::zmaxheap", ptr %3, i32 0, i32 3
  %5 = load ptr, ptr %4, align 8
  call void @free(ptr noundef %5) #12
  %6 = load ptr, ptr %2, align 8
  %7 = getelementptr inbounds %"struct.cv::aruco::zmaxheap", ptr %6, i32 0, i32 4
  %8 = load ptr, ptr %7, align 8
  call void @free(ptr noundef %8) #12
  %9 = load ptr, ptr %2, align 8
  call void @llvm.memset.p0.i64(ptr align 8 %9, i8 0, i64 40, i1 false)
  %10 = load ptr, ptr %2, align 8
  call void @free(ptr noundef %10) #12
  ret void
}