; Function Attrs: mustprogress nounwind willreturn uwtable
define hidden void @_ZN2cv5aruco16zmaxheap_destroyEPNS0_8zmaxheapE(ptr nocapture noundef %0) local_unnamed_addr #4 {
  %2 = getelementptr inbounds i8, ptr %0, i64 16
  %3 = load ptr, ptr %2, align 8
  tail call void @free(ptr noundef %3) #17
  %4 = getelementptr inbounds i8, ptr %0, i64 24
  %5 = load ptr, ptr %4, align 8
  tail call void @free(ptr noundef %5) #17
  tail call void @free(ptr noundef %0) #17
  ret void
}